; Function Attrs: nofree norecurse nosync nounwind memory(argmem: readwrite) uwtable
define void @ff_ivi_mc_avg_4x4_no_delta(ptr noundef writeonly captures(none) %0, ptr noundef readonly captures(none) %1, ptr noundef readonly captures(none) %2, i64 noundef %3, i32 noundef %4, i32 noundef %5) local_unnamed_addr #2 {
  %7 = alloca [16 x i16], align 16
  call void @llvm.lifetime.start.p0(i64 32, ptr nonnull %7) #5
  switch i32 %4, label %ivi_mc_4x4_no_delta.exit [
    i32 0, label %.preheader.i
    i32 1, label %.preheader82.i
    i32 2, label %.preheader85.i
    i32 3, label %.preheader88.i.preheader
  ]

.preheader88.i.preheader:                         ; preds = %6
  %.pre.pre = load i16, ptr %1, align 2, !tbaa !27
  br label %.preheader88.i

.preheader.i:                                     ; preds = %6, %.preheader.i
  %.068110.i = phi i32 [ %9, %.preheader.i ], [ %4, %6 ]
  %.072109.i = phi ptr [ %10, %.preheader.i ], [ %7, %6 ]
  %.076108.i = phi ptr [ %11, %.preheader.i ], [ %1, %6 ]
  %8 = load i64, ptr %.076108.i, align 2, !tbaa !27
  store i64 %8, ptr %.072109.i, align 2, !tbaa !27
  %9 = add nuw nsw i32 %.068110.i, 1
  %10 = getelementptr inbounds nuw i8, ptr %.072109.i, i64 8
  %11 = getelementptr inbounds i16, ptr %.076108.i, i64 %3
  %exitcond131.not.i = icmp eq i32 %9, 4
  br i1 %exitcond131.not.i, label %ivi_mc_4x4_no_delta.exit, label %.preheader.i, !llvm.loop !78

.preheader82.i:                                   ; preds = %6, %22
  %.169106.i = phi i32 [ %23, %22 ], [ 0, %6 ]
  %.173105.i = phi ptr [ %24, %22 ], [ %7, %6 ]
  %.177104.i = phi ptr [ %25, %22 ], [ %1, %6 ]
  %.pre32 = load i16, ptr %.177104.i, align 2, !tbaa !27
  br label %12

12:                                               ; preds = %12, %.preheader82.i
  %13 = phi i16 [ %.pre32, %.preheader82.i ], [ %16, %12 ]
  %indvars.iv122.i = phi i64 [ 0, %.preheader82.i ], [ %indvars.iv.next123.i, %12 ]
  %14 = sext i16 %13 to i32
  %indvars.iv.next123.i = add nuw nsw i64 %indvars.iv122.i, 1
  %15 = getelementptr inbounds nuw i16, ptr %.177104.i, i64 %indvars.iv.next123.i
  %16 = load i16, ptr %15, align 2, !tbaa !27
  %17 = sext i16 %16 to i32
  %18 = add nsw i32 %17, %14
  %19 = lshr i32 %18, 1
  %20 = trunc i32 %19 to i16
  %21 = getelementptr inbounds nuw i16, ptr %.173105.i, i64 %indvars.iv122.i
  store i16 %20, ptr %21, align 2, !tbaa !27
  %exitcond125.not.i = icmp eq i64 %indvars.iv.next123.i, 4
  br i1 %exitcond125.not.i, label %22, label %12, !llvm.loop !79

22:                                               ; preds = %12
  %23 = add nuw nsw i32 %.169106.i, 1
  %24 = getelementptr inbounds nuw i8, ptr %.173105.i, i64 8
  %25 = getelementptr inbounds i16, ptr %.177104.i, i64 %3
  %exitcond126.not.i = icmp eq i32 %23, 4
  br i1 %exitcond126.not.i, label %ivi_mc_4x4_no_delta.exit, label %.preheader82.i, !llvm.loop !80

.preheader85.i:                                   ; preds = %6, %37
  %.pn111.i = phi ptr [ %.0102.i, %37 ], [ %1, %6 ]
  %.270101.i = phi i32 [ %38, %37 ], [ 0, %6 ]
  %.274100.i = phi ptr [ %39, %37 ], [ %7, %6 ]
  %.0102.i = getelementptr i16, ptr %.pn111.i, i64 %3
  br label %26

26:                                               ; preds = %26, %.preheader85.i
  %indvars.iv117.i = phi i64 [ 0, %.preheader85.i ], [ %indvars.iv.next118.i, %26 ]
  %27 = getelementptr inbounds nuw i16, ptr %.pn111.i, i64 %indvars.iv117.i
  %28 = load i16, ptr %27, align 2, !tbaa !27
  %29 = sext i16 %28 to i32
  %30 = getelementptr inbounds nuw i16, ptr %.0102.i, i64 %indvars.iv117.i
  %31 = load i16, ptr %30, align 2, !tbaa !27
  %32 = sext i16 %31 to i32
  %33 = add nsw i32 %32, %29
  %34 = lshr i32 %33, 1
  %35 = trunc i32 %34 to i16
  %36 = getelementptr inbounds nuw i16, ptr %.274100.i, i64 %indvars.iv117.i
  store i16 %35, ptr %36, align 2, !tbaa !27
  %indvars.iv.next118.i = add nuw nsw i64 %indvars.iv117.i, 1
  %exitcond120.not.i = icmp eq i64 %indvars.iv.next118.i, 4
  br i1 %exitcond120.not.i, label %37, label %26, !llvm.loop !81

37:                                               ; preds = %26
  %38 = add nuw nsw i32 %.270101.i, 1
  %39 = getelementptr inbounds nuw i8, ptr %.274100.i, i64 8
  %exitcond121.not.i = icmp eq i32 %38, 4
  br i1 %exitcond121.not.i, label %ivi_mc_4x4_no_delta.exit, label %.preheader85.i, !llvm.loop !82

.preheader88.i:                                   ; preds = %.preheader88.i.preheader, %57
  %.pre = phi i16 [ %.pre31, %57 ], [ %.pre.pre, %.preheader88.i.preheader ]
  %.pn.i = phi ptr [ %.196.i, %57 ], [ %1, %.preheader88.i.preheader ]
  %.37195.i = phi i32 [ %58, %57 ], [ 0, %.preheader88.i.preheader ]
  %.37594.i = phi ptr [ %59, %57 ], [ %7, %.preheader88.i.preheader ]
  %.196.i = getelementptr i16, ptr %.pn.i, i64 %3
  %.pre31 = load i16, ptr %.196.i, align 2, !tbaa !27
  br label %40

40:                                               ; preds = %40, %.preheader88.i
  %41 = phi i16 [ %.pre31, %.preheader88.i ], [ %51, %40 ]
  %42 = phi i16 [ %.pre, %.preheader88.i ], [ %45, %40 ]
  %indvars.iv.i = phi i64 [ 0, %.preheader88.i ], [ %indvars.iv.next.i, %40 ]
  %43 = sext i16 %42 to i32
  %indvars.iv.next.i = add nuw nsw i64 %indvars.iv.i, 1
  %44 = getelementptr inbounds nuw i16, ptr %.pn.i, i64 %indvars.iv.next.i
  %45 = load i16, ptr %44, align 2, !tbaa !27
  %46 = sext i16 %45 to i32
  %47 = add nsw i32 %46, %43
  %48 = sext i16 %41 to i32
  %49 = add nsw i32 %47, %48
  %50 = getelementptr inbounds nuw i16, ptr %.196.i, i64 %indvars.iv.next.i
  %51 = load i16, ptr %50, align 2, !tbaa !27
  %52 = sext i16 %51 to i32
  %53 = add nsw i32 %49, %52
  %54 = lshr i32 %53, 2
  %55 = trunc i32 %54 to i16
  %56 = getelementptr inbounds nuw i16, ptr %.37594.i, i64 %indvars.iv.i
  store i16 %55, ptr %56, align 2, !tbaa !27
  %exitcond.not.i = icmp eq i64 %indvars.iv.next.i, 4
  br i1 %exitcond.not.i, label %57, label %40, !llvm.loop !83

57:                                               ; preds = %40
  %58 = add nuw nsw i32 %.37195.i, 1
  %59 = getelementptr inbounds nuw i8, ptr %.37594.i, i64 8
  %exitcond116.not.i = icmp eq i32 %58, 4
  br i1 %exitcond116.not.i, label %ivi_mc_4x4_no_delta.exit, label %.preheader88.i, !llvm.loop !84

ivi_mc_4x4_no_delta.exit:                         ; preds = %57, %37, %22, %.preheader.i, %6
  call fastcc void @ivi_mc_4x4_delta(ptr noundef nonnull %7, i64 noundef 4, ptr noundef %2, i64 noundef %3, i32 noundef %5)
  br label %.preheader

.preheader:                                       ; preds = %ivi_mc_4x4_no_delta.exit, %67
  %indvars.iv27 = phi i64 [ 0, %ivi_mc_4x4_no_delta.exit ], [ %indvars.iv.next28, %67 ]
  %.01621 = phi ptr [ %0, %ivi_mc_4x4_no_delta.exit ], [ %68, %67 ]
  %60 = shl nuw nsw i64 %indvars.iv27, 2
  br label %61

61:                                               ; preds = %.preheader, %61
  %indvars.iv = phi i64 [ 0, %.preheader ], [ %indvars.iv.next, %61 ]
  %62 = add nuw nsw i64 %indvars.iv, %60
  %63 = getelementptr inbounds nuw [16 x i16], ptr %7, i64 0, i64 %62
  %64 = load i16, ptr %63, align 2, !tbaa !27
  %65 = ashr i16 %64, 1
  %66 = getelementptr inbounds nuw i16, ptr %.01621, i64 %indvars.iv
  store i16 %65, ptr %66, align 2, !tbaa !27
  %indvars.iv.next = add nuw nsw i64 %indvars.iv, 1
  %exitcond.not = icmp eq i64 %indvars.iv.next, 4
  br i1 %exitcond.not, label %67, label %61, !llvm.loop !97

67:                                               ; preds = %61
  %indvars.iv.next28 = add nuw nsw i64 %indvars.iv27, 1
  %68 = getelementptr inbounds i16, ptr %.01621, i64 %3
  %exitcond30.not = icmp eq i64 %indvars.iv.next28, 4
  br i1 %exitcond30.not, label %69, label %.preheader, !llvm.loop !98

69:                                               ; preds = %67
  call void @llvm.lifetime.end.p0(i64 32, ptr nonnull %7) #5
  ret void
}